target datalayout = "e-m:e-p270:32:32-p271:32:32-p272:64:64-i64:64-i128:128-f80:128-n8:16:32:64-S128"
target triple = "x86_64-pc-linux-gnu"

%struct._ikev2_uat_data_key = type { ptr, i32, ptr, i32 }

; Function Attrs: nounwind null_pointer_is_valid sspstrong uwtable
define internal i32 @ikev2_key_hash_func(ptr noundef %0) #11 {
  %2 = alloca ptr, align 8
  %3 = alloca ptr, align 8
  %4 = alloca i32, align 4
  %5 = alloca ptr, align 8
  %6 = alloca i64, align 8
  %7 = alloca i64, align 8
  store ptr %0, ptr %2, align 8
  call void @llvm.lifetime.start.p0(i64 8, ptr %3) #16
  %8 = load ptr, ptr %2, align 8
  store ptr %8, ptr %3, align 8
  call void @llvm.lifetime.start.p0(i64 4, ptr %4) #16
  call void @llvm.lifetime.start.p0(i64 8, ptr %5) #16
  call void @llvm.lifetime.start.p0(i64 8, ptr %6) #16
  call void @llvm.lifetime.start.p0(i64 8, ptr %7) #16
  store i32 0, ptr %4, align 4
  %9 = load ptr, ptr %3, align 8
  %10 = getelementptr inbounds nuw %struct._ikev2_uat_data_key, ptr %9, i32 0, i32 1
  %11 = load i32, ptr %10, align 8
  %12 = udiv i32 %11, 4
  %13 = zext i32 %12 to i64
  store i64 %13, ptr %6, align 8
  %14 = load ptr, ptr %3, align 8
  %15 = getelementptr inbounds nuw %struct._ikev2_uat_data_key, ptr %14, i32 0, i32 0
  %16 = load ptr, ptr %15, align 8
  store ptr %16, ptr %5, align 8
  store i64 0, ptr %7, align 8
  br label %17

17:                                               ; preds = %28, %1
  %18 = load i64, ptr %7, align 8
  %19 = load i64, ptr %6, align 8
  %20 = icmp ult i64 %18, %19
  br i1 %20, label %21, label %31

21:                                               ; preds = %17
  %22 = load ptr, ptr %5, align 8
  %23 = load i64, ptr %7, align 8
  %24 = getelementptr i32, ptr %22, i64 %23
  %25 = load i32, ptr %24, align 4
  %26 = load i32, ptr %4, align 4
  %27 = xor i32 %26, %25
  store i32 %27, ptr %4, align 4
  br label %28

28:                                               ; preds = %21
  %29 = load i64, ptr %7, align 8
  %30 = add i64 %29, 1
  store i64 %30, ptr %7, align 8
  br label %17, !llvm.loop !48

31:                                               ; preds = %17
  %32 = load ptr, ptr %3, align 8
  %33 = getelementptr inbounds nuw %struct._ikev2_uat_data_key, ptr %32, i32 0, i32 3
  %34 = load i32, ptr %33, align 8
  %35 = udiv i32 %34, 4
  %36 = zext i32 %35 to i64
  store i64 %36, ptr %6, align 8
  %37 = load ptr, ptr %3, align 8
  %38 = getelementptr inbounds nuw %struct._ikev2_uat_data_key, ptr %37, i32 0, i32 2
  %39 = load ptr, ptr %38, align 8
  store ptr %39, ptr %5, align 8
  store i64 0, ptr %7, align 8
  br label %40

40:                                               ; preds = %51, %31
  %41 = load i64, ptr %7, align 8
  %42 = load i64, ptr %6, align 8
  %43 = icmp ult i64 %41, %42
  br i1 %43, label %44, label %54

44:                                               ; preds = %40
  %45 = load ptr, ptr %5, align 8
  %46 = load i64, ptr %7, align 8
  %47 = getelementptr i32, ptr %45, i64 %46
  %48 = load i32, ptr %47, align 4
  %49 = load i32, ptr %4, align 4
  %50 = xor i32 %49, %48
  store i32 %50, ptr %4, align 4
  br label %51

51:                                               ; preds = %44
  %52 = load i64, ptr %7, align 8
  %53 = add i64 %52, 1
  store i64 %53, ptr %7, align 8
  br label %40, !llvm.loop !49

54:                                               ; preds = %40
  %55 = load i32, ptr %4, align 4
  call void @llvm.lifetime.end.p0(i64 8, ptr %7) #16
  call void @llvm.lifetime.end.p0(i64 8, ptr %6) #16
  call void @llvm.lifetime.end.p0(i64 8, ptr %5) #16
  call void @llvm.lifetime.end.p0(i64 4, ptr %4) #16
  call void @llvm.lifetime.end.p0(i64 8, ptr %3) #16
  ret i32 %55
}