; Function Attrs: nofree norecurse nosync nounwind null_pointer_is_valid sspstrong memory(read, inaccessiblemem: none) uwtable
define internal i32 @ikev2_key_hash_func(ptr noundef readonly captures(none) %0) #11 {
  %2 = getelementptr inbounds nuw i8, ptr %0, i64 8
  %3 = load i32, ptr %2, align 8
  %4 = lshr i32 %3, 2
  %5 = zext nneg i32 %4 to i64
  %6 = load ptr, ptr %0, align 8
  %.not = icmp ult i32 %3, 4
  br i1 %.not, label %._crit_edge, label %.lr.ph

.lr.ph:                                           ; preds = %1, %.lr.ph
  %.020 = phi i64 [ %10, %.lr.ph ], [ 0, %1 ]
  %.01719 = phi i32 [ %9, %.lr.ph ], [ 0, %1 ]
  %7 = getelementptr i32, ptr %6, i64 %.020
  %8 = load i32, ptr %7, align 4
  %9 = xor i32 %8, %.01719
  %10 = add nuw nsw i64 %.020, 1
  %exitcond.not = icmp eq i64 %10, %5
  br i1 %exitcond.not, label %._crit_edge, label %.lr.ph, !llvm.loop !60

._crit_edge:                                      ; preds = %.lr.ph, %1
  %.017.lcssa = phi i32 [ 0, %1 ], [ %9, %.lr.ph ]
  %11 = getelementptr inbounds nuw i8, ptr %0, i64 24
  %12 = load i32, ptr %11, align 8
  %13 = lshr i32 %12, 2
  %14 = zext nneg i32 %13 to i64
  %15 = getelementptr inbounds nuw i8, ptr %0, i64 16
  %16 = load ptr, ptr %15, align 8
  %.not27 = icmp ult i32 %12, 4
  br i1 %.not27, label %._crit_edge25, label %.lr.ph24

.lr.ph24:                                         ; preds = %._crit_edge, %.lr.ph24
  %.122 = phi i64 [ %20, %.lr.ph24 ], [ 0, %._crit_edge ]
  %.11821 = phi i32 [ %19, %.lr.ph24 ], [ %.017.lcssa, %._crit_edge ]
  %17 = getelementptr i32, ptr %16, i64 %.122
  %18 = load i32, ptr %17, align 4
  %19 = xor i32 %18, %.11821
  %20 = add nuw nsw i64 %.122, 1
  %exitcond29.not = icmp eq i64 %20, %14
  br i1 %exitcond29.not, label %._crit_edge25, label %.lr.ph24, !llvm.loop !61

._crit_edge25:                                    ; preds = %.lr.ph24, %._crit_edge
  %.118.lcssa = phi i32 [ %.017.lcssa, %._crit_edge ], [ %19, %.lr.ph24 ]
  ret i32 %.118.lcssa
}